; Function Attrs: mustprogress nofree norecurse nosync nounwind willreturn memory(argmem: readwrite) uwtable
define internal fastcc noundef double @_ZN6dmg_fpL3b2dEPNS_6BigintEPi(ptr noundef readonly captures(address) %0, ptr noundef nonnull writeonly captures(none) initializes((0, 4)) %1) unnamed_addr #13 {
  %.ptr = getelementptr inbounds nuw i8, ptr %0, i64 24
  %3 = getelementptr inbounds nuw i8, ptr %0, i64 20
  %4 = load i32, ptr %3, align 4, !tbaa !37
  %5 = sext i32 %4 to i64
  %.idx = shl nsw i64 %5, 2
  %6 = getelementptr i8, ptr %0, i64 %.idx
  %.ptr57 = getelementptr i8, ptr %6, i64 20
  %7 = load i32, ptr %.ptr57, align 4, !tbaa !20
  %.not.i = icmp ult i32 %7, 65536
  %8 = shl nuw i32 %7, 16
  %spec.select.i = select i1 %.not.i, i32 %8, i32 %7
  %spec.select26.i = select i1 %.not.i, i32 16, i32 0
  %.not21.i = icmp ult i32 %spec.select.i, 16777216
  %9 = or disjoint i32 %spec.select26.i, 8
  %10 = shl nuw i32 %spec.select.i, 8
  %.117.i = select i1 %.not21.i, i32 %10, i32 %spec.select.i
  %.1.i = select i1 %.not21.i, i32 %9, i32 %spec.select26.i
  %.not22.i = icmp ult i32 %.117.i, 268435456
  %11 = or disjoint i32 %.1.i, 4
  %12 = shl nuw i32 %.117.i, 4
  %.218.i = select i1 %.not22.i, i32 %12, i32 %.117.i
  %.2.i = select i1 %.not22.i, i32 %11, i32 %.1.i
  %.not23.i = icmp ult i32 %.218.i, 1073741824
  %13 = or disjoint i32 %.2.i, 2
  %14 = shl nuw i32 %.218.i, 2
  %.319.i = select i1 %.not23.i, i32 %14, i32 %.218.i
  %.3.i = select i1 %.not23.i, i32 %13, i32 %.2.i
  %15 = add nuw nsw i32 %.3.i, 1
  %.not25.i = icmp ult i32 %.319.i, 1073741824
  %spec.select27.i = select i1 %.not25.i, i32 32, i32 %15
  %.not2428.i = icmp slt i32 %.319.i, 0
  %.020.i = select i1 %.not2428.i, i32 %.3.i, i32 %spec.select27.i
  %16 = sub nuw nsw i32 32, %.020.i
  store i32 %16, ptr %1, align 4, !tbaa !20
  %17 = icmp samesign ult i32 %.020.i, 11
  br i1 %17, label %18, label %31

18:                                               ; preds = %2
  %19 = sub nuw nsw i32 11, %.020.i
  %20 = lshr i32 %7, %19
  %21 = icmp ugt ptr %.ptr57, %.ptr
  br i1 %21, label %22, label %25

22:                                               ; preds = %18
  %23 = getelementptr i8, ptr %6, i64 16
  %24 = load i32, ptr %23, align 4, !tbaa !20
  br label %25

25:                                               ; preds = %18, %22
  %26 = phi i32 [ %24, %22 ], [ 0, %18 ]
  %27 = add nuw nsw i32 %.020.i, 21
  %28 = shl i32 %7, %27
  %29 = lshr i32 %26, %19
  %30 = or i32 %29, %28
  br label %53

31:                                               ; preds = %2
  %32 = icmp sgt i32 %4, 1
  br i1 %32, label %33, label %36

33:                                               ; preds = %31
  %34 = getelementptr i8, ptr %6, i64 16
  %35 = load i32, ptr %34, align 4, !tbaa !20
  br label %36

36:                                               ; preds = %31, %33
  %.0 = phi ptr [ %34, %33 ], [ %.ptr57, %31 ]
  %37 = phi i32 [ %35, %33 ], [ 0, %31 ]
  %38 = add nsw i32 %.020.i, -11
  %.not = icmp eq i32 %38, 0
  br i1 %.not, label %53, label %39

39:                                               ; preds = %36
  %40 = shl i32 %7, %38
  %41 = sub nuw nsw i32 43, %.020.i
  %42 = lshr i32 %37, %41
  %43 = or i32 %40, %42
  %44 = icmp ugt ptr %.0, %.ptr
  br i1 %44, label %45, label %48

45:                                               ; preds = %39
  %46 = getelementptr inbounds i8, ptr %.0, i64 -4
  %47 = load i32, ptr %46, align 4, !tbaa !20
  br label %48

48:                                               ; preds = %39, %45
  %49 = phi i32 [ %47, %45 ], [ 0, %39 ]
  %50 = shl i32 %37, %38
  %51 = lshr i32 %49, %41
  %52 = or i32 %51, %50
  br label %53

53:                                               ; preds = %36, %48, %25
  %.sink = phi i32 [ %52, %48 ], [ %30, %25 ], [ %37, %36 ]
  %.sroa.0.4.insert.shift11.sink.in.in.in = phi i32 [ %43, %48 ], [ %20, %25 ], [ %7, %36 ]
  %.sroa.0.4.insert.shift11.sink.in.in = or i32 %.sroa.0.4.insert.shift11.sink.in.in.in, 1072693248
  %.sroa.0.4.insert.shift11.sink.in = zext i32 %.sroa.0.4.insert.shift11.sink.in.in to i64
  %.sroa.0.4.insert.shift11.sink = shl nuw i64 %.sroa.0.4.insert.shift11.sink.in, 32
  %.sroa.0.0.insert.ext2 = zext i32 %.sink to i64
  %.sroa.0.0.insert.insert4 = or disjoint i64 %.sroa.0.4.insert.shift11.sink, %.sroa.0.0.insert.ext2
  %.sroa.0.0 = bitcast i64 %.sroa.0.0.insert.insert4 to double
  ret double %.sroa.0.0
}